target datalayout = "e-m:e-p270:32:32-p271:32:32-p272:64:64-i64:64-i128:128-f80:128-n8:16:32:64-S128"
target triple = "x86_64-pc-linux-gnu"

%struct.sharedObjectsStruct = type { ptr, ptr, ptr, ptr, ptr, ptr, ptr, ptr, [4 x ptr], [4 x ptr], [4 x ptr], [4 x ptr], ptr, ptr, ptr, ptr, ptr, ptr, ptr, ptr, ptr, ptr, ptr, ptr, ptr, ptr, ptr, ptr, ptr, ptr, ptr, ptr, ptr, ptr, ptr, ptr, ptr, ptr, ptr, ptr, ptr, ptr, ptr, ptr, ptr, ptr, ptr, ptr, ptr, ptr, ptr, ptr, ptr, ptr, ptr, ptr, ptr, ptr, ptr, ptr, ptr, ptr, ptr, ptr, ptr, ptr, ptr, ptr, ptr, ptr, ptr, ptr, ptr, ptr, ptr, ptr, ptr, ptr, ptr, ptr, ptr, ptr, ptr, ptr, ptr, ptr, ptr, ptr, [10 x ptr], [10000 x ptr], [32 x ptr], [32 x ptr], [32 x ptr], [32 x ptr], ptr, ptr }
%struct.client = type { i64, i64, ptr, i8, i8, i8, i8, i32, ptr, ptr, ptr, ptr, ptr, i64, i64, i32, ptr, i32, i32, ptr, i64, ptr, ptr, ptr, ptr, ptr, i32, i32, i64, ptr, i64, ptr, i64, i64, i64, i32, ptr, i64, i64, i32, i32, i32, i32, i64, i64, ptr, i64, i64, i64, i64, i64, i64, i64, i64, [41 x i8], i32, ptr, i32, i32, i64, %struct.multiState, %struct.blockingState, i64, ptr, ptr, ptr, ptr, ptr, ptr, ptr, ptr, ptr, ptr, ptr, ptr, ptr, ptr, i64, ptr, i64, i32, ptr, ptr, ptr, i64, %struct.listNode, i64, i64, i32, i64, ptr }
%struct.multiState = type { ptr, i32, i32, i32, i64, i32 }
%struct.blockingState = type { i32, i64, i32, ptr, i32, i32, i64, ptr, ptr, i64 }
%struct.listNode = type { ptr, ptr, ptr }

@shared = external global %struct.sharedObjectsStruct, align 8
@.str.12 = private unnamed_addr constant [34 x i8] c"WATCH inside MULTI is not allowed\00", align 1

; Function Attrs: nounwind uwtable
define dso_local void @watchCommand(ptr noundef %0) #0 {
  %2 = alloca ptr, align 8
  %3 = alloca i32, align 4
  %4 = alloca i32, align 4
  store ptr %0, ptr %2, align 8, !tbaa !5
  call void @llvm.lifetime.start.p0(i64 4, ptr %3) #8
  %5 = load ptr, ptr %2, align 8, !tbaa !5
  %6 = getelementptr inbounds nuw %struct.client, ptr %5, i32 0, i32 1
  %7 = load i64, ptr %6, align 8, !tbaa !45
  %8 = and i64 %7, 8
  %9 = icmp ne i64 %8, 0
  br i1 %9, label %10, label %12

10:                                               ; preds = %1
  %11 = load ptr, ptr %2, align 8, !tbaa !5
  call void @addReplyError(ptr noundef %11, ptr noundef @.str.12)
  store i32 1, ptr %4, align 4
  br label %43

12:                                               ; preds = %1
  %13 = load ptr, ptr %2, align 8, !tbaa !5
  %14 = getelementptr inbounds nuw %struct.client, ptr %13, i32 0, i32 1
  %15 = load i64, ptr %14, align 8, !tbaa !45
  %16 = and i64 %15, 32
  %17 = icmp ne i64 %16, 0
  br i1 %17, label %18, label %21

18:                                               ; preds = %12
  %19 = load ptr, ptr %2, align 8, !tbaa !5
  %20 = load ptr, ptr @shared, align 8, !tbaa !87
  call void @addReply(ptr noundef %19, ptr noundef %20)
  store i32 1, ptr %4, align 4
  br label %43

21:                                               ; preds = %12
  store i32 1, ptr %3, align 4, !tbaa !35
  br label %22

22:                                               ; preds = %37, %21
  %23 = load i32, ptr %3, align 4, !tbaa !35
  %24 = load ptr, ptr %2, align 8, !tbaa !5
  %25 = getelementptr inbounds nuw %struct.client, ptr %24, i32 0, i32 15
  %26 = load i32, ptr %25, align 8, !tbaa !48
  %27 = icmp slt i32 %23, %26
  br i1 %27, label %28, label %40

28:                                               ; preds = %22
  %29 = load ptr, ptr %2, align 8, !tbaa !5
  %30 = load ptr, ptr %2, align 8, !tbaa !5
  %31 = getelementptr inbounds nuw %struct.client, ptr %30, i32 0, i32 16
  %32 = load ptr, ptr %31, align 8, !tbaa !49
  %33 = load i32, ptr %3, align 4, !tbaa !35
  %34 = sext i32 %33 to i64
  %35 = getelementptr inbounds ptr, ptr %32, i64 %34
  %36 = load ptr, ptr %35, align 8, !tbaa !40
  call void @watchForKey(ptr noundef %29, ptr noundef %36)
  br label %37

37:                                               ; preds = %28
  %38 = load i32, ptr %3, align 4, !tbaa !35
  %39 = add nsw i32 %38, 1
  store i32 %39, ptr %3, align 4, !tbaa !35
  br label %22, !llvm.loop !115

40:                                               ; preds = %22
  %41 = load ptr, ptr %2, align 8, !tbaa !5
  %42 = load ptr, ptr @shared, align 8, !tbaa !87
  call void @addReply(ptr noundef %41, ptr noundef %42)
  store i32 0, ptr %4, align 4
  br label %43

43:                                               ; preds = %40, %18, %10
  call void @llvm.lifetime.end.p0(i64 4, ptr %3) #8
  %44 = load i32, ptr %4, align 4
  switch i32 %44, label %46 [
    i32 0, label %45
    i32 1, label %45
  ]

45:                                               ; preds = %43, %43
  ret void

46:                                               ; preds = %43
  unreachable
}