; Function Attrs: nounwind uwtable
define dso_local void @watchCommand(ptr noundef %0) local_unnamed_addr #1 {
  %2 = getelementptr inbounds nuw i8, ptr %0, i64 8
  %3 = load i64, ptr %2, align 8, !tbaa !38
  %4 = and i64 %3, 8
  %.not = icmp eq i64 %4, 0
  br i1 %.not, label %6, label %5

5:                                                ; preds = %1
  tail call void @addReplyError(ptr noundef nonnull %0, ptr noundef nonnull @.str.12) #10
  br label %22

6:                                                ; preds = %1
  %7 = and i64 %3, 32
  %.not10 = icmp eq i64 %7, 0
  br i1 %.not10, label %.preheader, label %12

.preheader:                                       ; preds = %6
  %8 = getelementptr inbounds nuw i8, ptr %0, i64 88
  %9 = load i32, ptr %8, align 8, !tbaa !41
  %10 = icmp sgt i32 %9, 1
  br i1 %10, label %.lr.ph, label %._crit_edge

.lr.ph:                                           ; preds = %.preheader
  %11 = getelementptr inbounds nuw i8, ptr %0, i64 96
  br label %14

12:                                               ; preds = %6
  %13 = load ptr, ptr @shared, align 8, !tbaa !81
  tail call void @addReply(ptr noundef nonnull %0, ptr noundef %13) #10
  br label %22

14:                                               ; preds = %.lr.ph, %14
  %indvars.iv = phi i64 [ 1, %.lr.ph ], [ %indvars.iv.next, %14 ]
  %15 = load ptr, ptr %11, align 8, !tbaa !42
  %16 = getelementptr inbounds nuw ptr, ptr %15, i64 %indvars.iv
  %17 = load ptr, ptr %16, align 8, !tbaa !34
  tail call void @watchForKey(ptr noundef nonnull %0, ptr noundef %17)
  %indvars.iv.next = add nuw nsw i64 %indvars.iv, 1
  %18 = load i32, ptr %8, align 8, !tbaa !41
  %19 = sext i32 %18 to i64
  %20 = icmp slt i64 %indvars.iv.next, %19
  br i1 %20, label %14, label %._crit_edge, !llvm.loop !104

._crit_edge:                                      ; preds = %14, %.preheader
  %21 = load ptr, ptr @shared, align 8, !tbaa !81
  tail call void @addReply(ptr noundef nonnull %0, ptr noundef %21) #10
  br label %22

22:                                               ; preds = %._crit_edge, %12, %5
  ret void
}